target datalayout = "e-m:e-p270:32:32-p271:32:32-p272:64:64-i64:64-i128:128-f80:128-n8:16:32:64-S128"
target triple = "x86_64-pc-linux-gnu"

%"class.llvm::InstrProfWriter" = type <{ i8, [7 x i8], %"class.llvm::StringMap", i64, i64, i64, %"class.llvm::SmallVector", %"class.std::mersenne_twister_engine", %"struct.llvm::memprof::IndexedMemProfData", %"class.std::vector", %"class.llvm::StringSet", i32, [4 x i8], ptr, i8, [7 x i8], i64, i8, [7 x i8] }>
%"class.llvm::StringMap" = type { %"class.llvm::StringMapImpl" }
%"class.llvm::StringMapImpl" = type { ptr, i32, i32, i32, i32 }
%"class.llvm::SmallVector" = type { %"class.llvm::SmallVectorImpl", %"struct.llvm::SmallVectorStorage" }
%"class.llvm::SmallVectorImpl" = type { %"class.llvm::SmallVectorTemplateBase" }
%"class.llvm::SmallVectorTemplateBase" = type { %"class.llvm::SmallVectorTemplateCommon" }
%"class.llvm::SmallVectorTemplateCommon" = type { %"class.llvm::SmallVectorBase" }
%"class.llvm::SmallVectorBase" = type { ptr, i32, i32 }
%"struct.llvm::SmallVectorStorage" = type { [32 x i8] }
%"class.std::mersenne_twister_engine" = type { [624 x i64], i64 }
%"struct.llvm::memprof::IndexedMemProfData" = type { %"class.llvm::MapVector", %"class.llvm::MapVector.5", %"class.llvm::MapVector.11" }
%"class.llvm::MapVector" = type { %"class.llvm::DenseMap", %"class.llvm::SmallVector.0" }
%"class.llvm::DenseMap" = type <{ ptr, i32, i32, i32, [4 x i8] }>
%"class.llvm::SmallVector.0" = type { %"class.llvm::SmallVectorImpl.1" }
%"class.llvm::SmallVectorImpl.1" = type { %"class.llvm::SmallVectorTemplateBase.2" }
%"class.llvm::SmallVectorTemplateBase.2" = type { %"class.llvm::SmallVectorTemplateCommon.3" }
%"class.llvm::SmallVectorTemplateCommon.3" = type { %"class.llvm::SmallVectorBase" }
%"class.llvm::MapVector.5" = type { %"class.llvm::DenseMap", %"class.llvm::SmallVector.6" }
%"class.llvm::SmallVector.6" = type { %"class.llvm::SmallVectorImpl.7" }
%"class.llvm::SmallVectorImpl.7" = type { %"class.llvm::SmallVectorTemplateBase.8" }
%"class.llvm::SmallVectorTemplateBase.8" = type { %"class.llvm::SmallVectorTemplateCommon.9" }
%"class.llvm::SmallVectorTemplateCommon.9" = type { %"class.llvm::SmallVectorBase" }
%"class.llvm::MapVector.11" = type { %"class.llvm::DenseMap", %"class.llvm::SmallVector.12" }
%"class.llvm::SmallVector.12" = type { %"class.llvm::SmallVectorImpl.13" }
%"class.llvm::SmallVectorImpl.13" = type { %"class.llvm::SmallVectorTemplateBase.14" }
%"class.llvm::SmallVectorTemplateBase.14" = type { %"class.llvm::SmallVectorTemplateCommon.15" }
%"class.llvm::SmallVectorTemplateCommon.15" = type { %"class.llvm::SmallVectorBase" }
%"class.std::vector" = type { %"struct.std::_Vector_base" }
%"struct.std::_Vector_base" = type { %"struct.std::_Vector_base<llvm::SmallVector<unsigned char, 10>, std::allocator<llvm::SmallVector<unsigned char, 10>>>::_Vector_impl" }
%"struct.std::_Vector_base<llvm::SmallVector<unsigned char, 10>, std::allocator<llvm::SmallVector<unsigned char, 10>>>::_Vector_impl" = type { %"struct.std::_Vector_base<llvm::SmallVector<unsigned char, 10>, std::allocator<llvm::SmallVector<unsigned char, 10>>>::_Vector_impl_data" }
%"struct.std::_Vector_base<llvm::SmallVector<unsigned char, 10>, std::allocator<llvm::SmallVector<unsigned char, 10>>>::_Vector_impl_data" = type { ptr, ptr, ptr }
%"class.llvm::StringSet" = type { %"class.llvm::StringMap.17" }
%"class.llvm::StringMap.17" = type { %"class.llvm::StringMapImpl" }
%"class.llvm::ArrayRef" = type { ptr, i64 }
%"class.__gnu_cxx::__normal_iterator.155" = type { ptr }
%"class.__gnu_cxx::__normal_iterator" = type { ptr }
%"class.llvm::SmallVector.102" = type <{ %"class.llvm::SmallVectorImpl.103", %"struct.llvm::SmallVectorStorage.107", [6 x i8] }>
%"class.llvm::SmallVectorImpl.103" = type { %"class.llvm::SmallVectorTemplateBase.104" }
%"class.llvm::SmallVectorTemplateBase.104" = type { %"class.llvm::SmallVectorTemplateCommon.105" }
%"class.llvm::SmallVectorTemplateCommon.105" = type { %"class.llvm::SmallVectorBase.106" }
%"class.llvm::SmallVectorBase.106" = type { ptr, i64, i64 }
%"struct.llvm::SmallVectorStorage.107" = type { [10 x i8] }

; Function Attrs: mustprogress nounwind uwtable
define linkonce_odr hidden noundef ptr @_ZNK4llvm8ArrayRefINS_11SmallVectorIhLj10EEEE3endEv(ptr noundef nonnull align 8 dereferenceable(16) %0) #0 comdat align 2 {
  %2 = alloca ptr, align 8
  store ptr %0, ptr %2, align 8
  %3 = load ptr, ptr %2, align 8
  %4 = getelementptr inbounds nuw %"class.llvm::ArrayRef", ptr %3, i32 0, i32 0
  %5 = load ptr, ptr %4, align 8
  %6 = getelementptr inbounds nuw %"class.llvm::ArrayRef", ptr %3, i32 0, i32 1
  %7 = load i64, ptr %6, align 8
  %8 = getelementptr inbounds %"class.llvm::SmallVector.102", ptr %5, i64 %7
  ret ptr %8
}

; Function Attrs: mustprogress nounwind uwtable
define linkonce_odr hidden noundef ptr @_ZNK4llvm8ArrayRefINS_11SmallVectorIhLj10EEEE5beginEv(ptr noundef nonnull align 8 dereferenceable(16) %0) #0 comdat align 2 {
  %2 = alloca ptr, align 8
  store ptr %0, ptr %2, align 8
  %3 = load ptr, ptr %2, align 8
  %4 = getelementptr inbounds nuw %"class.llvm::ArrayRef", ptr %3, i32 0, i32 0
  %5 = load ptr, ptr %4, align 8
  ret ptr %5
}

; Function Attrs: mustprogress nounwind uwtable
define linkonce_odr void @_ZSt19__iterator_categoryIPKN4llvm11SmallVectorIhLj10EEEENSt15iterator_traitsIT_E17iterator_categoryERKS6_(ptr noundef nonnull align 8 dereferenceable(8) %0) #0 comdat {
  %2 = alloca ptr, align 8
  store ptr %0, ptr %2, align 8
  ret void
}

; Function Attrs: mustprogress nounwind uwtable
define linkonce_odr hidden noundef nonnull align 8 dereferenceable(8) ptr @_ZNK9__gnu_cxx17__normal_iteratorIPKN4llvm11SmallVectorIhLj10EEESt6vectorIS3_SaIS3_EEE4baseEv(ptr noundef nonnull align 8 dereferenceable(8) %0) #0 comdat align 2 {
  %2 = alloca ptr, align 8
  store ptr %0, ptr %2, align 8
  %3 = load ptr, ptr %2, align 8
  %4 = getelementptr inbounds nuw %"class.__gnu_cxx::__normal_iterator.155", ptr %3, i32 0, i32 0
  ret ptr %4
}

; Function Attrs: mustprogress nounwind uwtable
define linkonce_odr hidden void @_ZN9__gnu_cxx17__normal_iteratorIPKN4llvm11SmallVectorIhLj10EEESt6vectorIS3_SaIS3_EEEC2ERKS5_(ptr noundef nonnull align 8 dereferenceable(8) %0, ptr noundef nonnull align 8 dereferenceable(8) %1) unnamed_addr #0 comdat align 2 {
  %3 = alloca ptr, align 8
  %4 = alloca ptr, align 8
  store ptr %0, ptr %3, align 8
  store ptr %1, ptr %4, align 8
  %5 = load ptr, ptr %3, align 8
  %6 = getelementptr inbounds nuw %"class.__gnu_cxx::__normal_iterator.155", ptr %5, i32 0, i32 0
  %7 = load ptr, ptr %4, align 8
  %8 = load ptr, ptr %7, align 8
  store ptr %8, ptr %6, align 8
  ret void
}

; Function Attrs: mustprogress nounwind uwtable
define linkonce_odr noundef ptr @_ZSt3endIN4llvm8ArrayRefINS0_11SmallVectorIhLj10EEEEEEDTcldtfp_3endEERT_(ptr noundef nonnull align 8 dereferenceable(16) %0) #0 comdat {
  %2 = alloca ptr, align 8
  store ptr %0, ptr %2, align 8
  %3 = load ptr, ptr %2, align 8
  %4 = call noundef ptr @_ZNK4llvm8ArrayRefINS_11SmallVectorIhLj10EEEE3endEv(ptr noundef nonnull align 8 dereferenceable(16) %3)
  ret ptr %4
}

; Function Attrs: mustprogress nounwind uwtable
define linkonce_odr noundef ptr @_ZSt5beginIN4llvm8ArrayRefINS0_11SmallVectorIhLj10EEEEEEDTcldtfp_5beginEERT_(ptr noundef nonnull align 8 dereferenceable(16) %0) #0 comdat {
  %2 = alloca ptr, align 8
  store ptr %0, ptr %2, align 8
  %3 = load ptr, ptr %2, align 8
  %4 = call noundef ptr @_ZNK4llvm8ArrayRefINS_11SmallVectorIhLj10EEEE5beginEv(ptr noundef nonnull align 8 dereferenceable(16) %3)
  ret ptr %4
}

; Function Attrs: mustprogress nounwind uwtable
define linkonce_odr hidden void @_ZNSt6vectorIN4llvm11SmallVectorIhLj10EEESaIS2_EE18_M_insert_dispatchIPKS2_EEvN9__gnu_cxx17__normal_iteratorIPS2_S4_EET_SC_St12__false_type(ptr noundef nonnull align 8 dereferenceable(24) %0, ptr %1, ptr noundef %2, ptr noundef %3) #0 comdat align 2 {
  %5 = alloca %"class.__gnu_cxx::__normal_iterator", align 8
  %6 = alloca ptr, align 8
  %7 = alloca ptr, align 8
  %8 = alloca ptr, align 8
  %9 = alloca %"class.__gnu_cxx::__normal_iterator", align 8
  %10 = getelementptr inbounds nuw %"class.__gnu_cxx::__normal_iterator", ptr %5, i32 0, i32 0
  store ptr %1, ptr %10, align 8
  store ptr %0, ptr %6, align 8
  store ptr %2, ptr %7, align 8
  store ptr %3, ptr %8, align 8
  %11 = load ptr, ptr %6, align 8
  call void @llvm.memcpy.p0.p0.i64(ptr align 8 %9, ptr align 8 %5, i64 8, i1 false)
  %12 = load ptr, ptr %7, align 8
  %13 = load ptr, ptr %8, align 8
  call void @_ZSt19__iterator_categoryIPKN4llvm11SmallVectorIhLj10EEEENSt15iterator_traitsIT_E17iterator_categoryERKS6_(ptr noundef nonnull align 8 dereferenceable(8) %7)
  %14 = getelementptr inbounds nuw %"class.__gnu_cxx::__normal_iterator", ptr %9, i32 0, i32 0
  %15 = load ptr, ptr %14, align 8
  call void @_ZNSt6vectorIN4llvm11SmallVectorIhLj10EEESaIS2_EE15_M_range_insertIPKS2_EEvN9__gnu_cxx17__normal_iteratorIPS2_S4_EET_SC_St20forward_iterator_tag(ptr noundef nonnull align 8 dereferenceable(24) %11, ptr %15, ptr noundef %12, ptr noundef %13)
  ret void
}

; Function Attrs: mustprogress nounwind uwtable
define linkonce_odr hidden ptr @_ZNK9__gnu_cxx17__normal_iteratorIPN4llvm11SmallVectorIhLj10EEESt6vectorIS3_SaIS3_EEEplEl(ptr noundef nonnull align 8 dereferenceable(8) %0, i64 noundef %1) #0 comdat align 2 {
  %3 = alloca %"class.__gnu_cxx::__normal_iterator", align 8
  %4 = alloca ptr, align 8
  %5 = alloca i64, align 8
  %6 = alloca ptr, align 8
  store ptr %0, ptr %4, align 8
  store i64 %1, ptr %5, align 8
  %7 = load ptr, ptr %4, align 8
  %8 = getelementptr inbounds nuw %"class.__gnu_cxx::__normal_iterator", ptr %7, i32 0, i32 0
  %9 = load ptr, ptr %8, align 8
  %10 = load i64, ptr %5, align 8
  %11 = getelementptr inbounds %"class.llvm::SmallVector.102", ptr %9, i64 %10
  store ptr %11, ptr %6, align 8
  call void @_ZN9__gnu_cxx17__normal_iteratorIPN4llvm11SmallVectorIhLj10EEESt6vectorIS3_SaIS3_EEEC2ERKS4_(ptr noundef nonnull align 8 dereferenceable(8) %3, ptr noundef nonnull align 8 dereferenceable(8) %6) #16
  %12 = getelementptr inbounds nuw %"class.__gnu_cxx::__normal_iterator", ptr %3, i32 0, i32 0
  %13 = load ptr, ptr %12, align 8
  ret ptr %13
}

; Function Attrs: mustprogress nounwind uwtable
define linkonce_odr hidden ptr @_ZNSt6vectorIN4llvm11SmallVectorIhLj10EEESaIS2_EE5beginEv(ptr noundef nonnull align 8 dereferenceable(24) %0) #0 comdat align 2 {
  %2 = alloca %"class.__gnu_cxx::__normal_iterator", align 8
  %3 = alloca ptr, align 8
  store ptr %0, ptr %3, align 8
  %4 = load ptr, ptr %3, align 8
  %5 = getelementptr inbounds nuw %"struct.std::_Vector_base", ptr %4, i32 0, i32 0
  %6 = getelementptr inbounds nuw %"struct.std::_Vector_base<llvm::SmallVector<unsigned char, 10>, std::allocator<llvm::SmallVector<unsigned char, 10>>>::_Vector_impl_data", ptr %5, i32 0, i32 0
  call void @_ZN9__gnu_cxx17__normal_iteratorIPN4llvm11SmallVectorIhLj10EEESt6vectorIS3_SaIS3_EEEC2ERKS4_(ptr noundef nonnull align 8 dereferenceable(8) %2, ptr noundef nonnull align 8 dereferenceable(8) %6) #16
  %7 = getelementptr inbounds nuw %"class.__gnu_cxx::__normal_iterator", ptr %2, i32 0, i32 0
  %8 = load ptr, ptr %7, align 8
  ret ptr %8
}

; Function Attrs: mustprogress nounwind uwtable
define linkonce_odr noundef i64 @_ZN9__gnu_cxxmiIPKN4llvm11SmallVectorIhLj10EEESt6vectorIS3_SaIS3_EEEENS_17__normal_iteratorIT_T0_E15difference_typeERKSC_SF_(ptr noundef nonnull align 8 dereferenceable(8) %0, ptr noundef nonnull align 8 dereferenceable(8) %1) #0 comdat {
  %3 = alloca ptr, align 8
  %4 = alloca ptr, align 8
  store ptr %0, ptr %3, align 8
  store ptr %1, ptr %4, align 8
  %5 = load ptr, ptr %3, align 8
  %6 = call noundef nonnull align 8 dereferenceable(8) ptr @_ZNK9__gnu_cxx17__normal_iteratorIPKN4llvm11SmallVectorIhLj10EEESt6vectorIS3_SaIS3_EEE4baseEv(ptr noundef nonnull align 8 dereferenceable(8) %5) #16
  %7 = load ptr, ptr %6, align 8
  %8 = load ptr, ptr %4, align 8
  %9 = call noundef nonnull align 8 dereferenceable(8) ptr @_ZNK9__gnu_cxx17__normal_iteratorIPKN4llvm11SmallVectorIhLj10EEESt6vectorIS3_SaIS3_EEE4baseEv(ptr noundef nonnull align 8 dereferenceable(8) %8) #16
  %10 = load ptr, ptr %9, align 8
  %11 = ptrtoint ptr %7 to i64
  %12 = ptrtoint ptr %10 to i64
  %13 = sub i64 %11, %12
  %14 = sdiv exact i64 %13, 40
  ret i64 %14
}

; Function Attrs: mustprogress nounwind uwtable
define linkonce_odr hidden ptr @_ZNKSt6vectorIN4llvm11SmallVectorIhLj10EEESaIS2_EE6cbeginEv(ptr noundef nonnull align 8 dereferenceable(24) %0) #0 comdat align 2 {
  %2 = alloca %"class.__gnu_cxx::__normal_iterator.155", align 8
  %3 = alloca ptr, align 8
  store ptr %0, ptr %3, align 8
  %4 = load ptr, ptr %3, align 8
  %5 = getelementptr inbounds nuw %"struct.std::_Vector_base", ptr %4, i32 0, i32 0
  %6 = getelementptr inbounds nuw %"struct.std::_Vector_base<llvm::SmallVector<unsigned char, 10>, std::allocator<llvm::SmallVector<unsigned char, 10>>>::_Vector_impl_data", ptr %5, i32 0, i32 0
  call void @_ZN9__gnu_cxx17__normal_iteratorIPKN4llvm11SmallVectorIhLj10EEESt6vectorIS3_SaIS3_EEEC2ERKS5_(ptr noundef nonnull align 8 dereferenceable(8) %2, ptr noundef nonnull align 8 dereferenceable(8) %6) #16
  %7 = getelementptr inbounds nuw %"class.__gnu_cxx::__normal_iterator.155", ptr %2, i32 0, i32 0
  %8 = load ptr, ptr %7, align 8
  ret ptr %8
}

; Function Attrs: mustprogress nounwind uwtable
define linkonce_odr hidden noundef ptr @_ZN4llvm10adl_detail8end_implIRNS_8ArrayRefINS_11SmallVectorIhLj10EEEEEEEDTcl3endclsr3stdE7forwardIT_Efp_EEEOS7_(ptr noundef nonnull align 8 dereferenceable(16) %0) #0 comdat {
  %2 = alloca ptr, align 8
  store ptr %0, ptr %2, align 8
  %3 = load ptr, ptr %2, align 8
  %4 = call noundef ptr @_ZSt3endIN4llvm8ArrayRefINS0_11SmallVectorIhLj10EEEEEEDTcldtfp_3endEERT_(ptr noundef nonnull align 8 dereferenceable(16) %3)
  ret ptr %4
}

; Function Attrs: mustprogress nounwind uwtable
define linkonce_odr hidden noundef ptr @_ZN4llvm10adl_detail10begin_implIRNS_8ArrayRefINS_11SmallVectorIhLj10EEEEEEEDTcl5beginclsr3stdE7forwardIT_Efp_EEEOS7_(ptr noundef nonnull align 8 dereferenceable(16) %0) #0 comdat {
  %2 = alloca ptr, align 8
  store ptr %0, ptr %2, align 8
  %3 = load ptr, ptr %2, align 8
  %4 = call noundef ptr @_ZSt5beginIN4llvm8ArrayRefINS0_11SmallVectorIhLj10EEEEEEDTcldtfp_5beginEERT_(ptr noundef nonnull align 8 dereferenceable(16) %3)
  ret ptr %4
}

; Function Attrs: mustprogress nounwind uwtable
define linkonce_odr hidden noundef nonnull align 8 dereferenceable(8) ptr @_ZNK9__gnu_cxx17__normal_iteratorIPN4llvm11SmallVectorIhLj10EEESt6vectorIS3_SaIS3_EEE4baseEv(ptr noundef nonnull align 8 dereferenceable(8) %0) #0 comdat align 2 {
  %2 = alloca ptr, align 8
  store ptr %0, ptr %2, align 8
  %3 = load ptr, ptr %2, align 8
  %4 = getelementptr inbounds nuw %"class.__gnu_cxx::__normal_iterator", ptr %3, i32 0, i32 0
  ret ptr %4
}

; Function Attrs: mustprogress nounwind uwtable
define linkonce_odr hidden void @_ZN9__gnu_cxx17__normal_iteratorIPN4llvm11SmallVectorIhLj10EEESt6vectorIS3_SaIS3_EEEC2ERKS4_(ptr noundef nonnull align 8 dereferenceable(8) %0, ptr noundef nonnull align 8 dereferenceable(8) %1) unnamed_addr #0 comdat align 2 {
  %3 = alloca ptr, align 8
  %4 = alloca ptr, align 8
  store ptr %0, ptr %3, align 8
  store ptr %1, ptr %4, align 8
  %5 = load ptr, ptr %3, align 8
  %6 = getelementptr inbounds nuw %"class.__gnu_cxx::__normal_iterator", ptr %5, i32 0, i32 0
  %7 = load ptr, ptr %4, align 8
  %8 = load ptr, ptr %7, align 8
  store ptr %8, ptr %6, align 8
  ret void
}

; Function Attrs: mustprogress nounwind uwtable
define linkonce_odr hidden ptr @_ZNSt6vectorIN4llvm11SmallVectorIhLj10EEESaIS2_EE6insertIPKS2_vEEN9__gnu_cxx17__normal_iteratorIPS2_S4_EENS9_IS7_S4_EET_SD_(ptr noundef nonnull align 8 dereferenceable(24) %0, ptr %1, ptr noundef %2, ptr noundef %3) #0 comdat align 2 {
  %5 = alloca %"class.__gnu_cxx::__normal_iterator", align 8
  %6 = alloca %"class.__gnu_cxx::__normal_iterator.155", align 8
  %7 = alloca ptr, align 8
  %8 = alloca ptr, align 8
  %9 = alloca ptr, align 8
  %10 = alloca i64, align 8
  %11 = alloca %"class.__gnu_cxx::__normal_iterator.155", align 8
  %12 = alloca %"class.__gnu_cxx::__normal_iterator", align 8
  %13 = alloca %"class.__gnu_cxx::__normal_iterator", align 8
  %14 = alloca %"class.__gnu_cxx::__normal_iterator", align 8
  %15 = getelementptr inbounds nuw %"class.__gnu_cxx::__normal_iterator.155", ptr %6, i32 0, i32 0
  store ptr %1, ptr %15, align 8
  store ptr %0, ptr %7, align 8
  store ptr %2, ptr %8, align 8
  store ptr %3, ptr %9, align 8
  %16 = load ptr, ptr %7, align 8
  %17 = call ptr @_ZNKSt6vectorIN4llvm11SmallVectorIhLj10EEESaIS2_EE6cbeginEv(ptr noundef nonnull align 8 dereferenceable(24) %16) #16
  %18 = getelementptr inbounds nuw %"class.__gnu_cxx::__normal_iterator.155", ptr %11, i32 0, i32 0
  store ptr %17, ptr %18, align 8
  %19 = call noundef i64 @_ZN9__gnu_cxxmiIPKN4llvm11SmallVectorIhLj10EEESt6vectorIS3_SaIS3_EEEENS_17__normal_iteratorIT_T0_E15difference_typeERKSC_SF_(ptr noundef nonnull align 8 dereferenceable(8) %6, ptr noundef nonnull align 8 dereferenceable(8) %11) #16
  store i64 %19, ptr %10, align 8
  %20 = call ptr @_ZNSt6vectorIN4llvm11SmallVectorIhLj10EEESaIS2_EE5beginEv(ptr noundef nonnull align 8 dereferenceable(24) %16) #16
  %21 = getelementptr inbounds nuw %"class.__gnu_cxx::__normal_iterator", ptr %13, i32 0, i32 0
  store ptr %20, ptr %21, align 8
  %22 = load i64, ptr %10, align 8
  %23 = call ptr @_ZNK9__gnu_cxx17__normal_iteratorIPN4llvm11SmallVectorIhLj10EEESt6vectorIS3_SaIS3_EEEplEl(ptr noundef nonnull align 8 dereferenceable(8) %13, i64 noundef %22) #16
  %24 = getelementptr inbounds nuw %"class.__gnu_cxx::__normal_iterator", ptr %12, i32 0, i32 0
  store ptr %23, ptr %24, align 8
  %25 = load ptr, ptr %8, align 8
  %26 = load ptr, ptr %9, align 8
  %27 = getelementptr inbounds nuw %"class.__gnu_cxx::__normal_iterator", ptr %12, i32 0, i32 0
  %28 = load ptr, ptr %27, align 8
  call void @_ZNSt6vectorIN4llvm11SmallVectorIhLj10EEESaIS2_EE18_M_insert_dispatchIPKS2_EEvN9__gnu_cxx17__normal_iteratorIPS2_S4_EET_SC_St12__false_type(ptr noundef nonnull align 8 dereferenceable(24) %16, ptr %28, ptr noundef %25, ptr noundef %26)
  %29 = call ptr @_ZNSt6vectorIN4llvm11SmallVectorIhLj10EEESaIS2_EE5beginEv(ptr noundef nonnull align 8 dereferenceable(24) %16) #16
  %30 = getelementptr inbounds nuw %"class.__gnu_cxx::__normal_iterator", ptr %14, i32 0, i32 0
  store ptr %29, ptr %30, align 8
  %31 = load i64, ptr %10, align 8
  %32 = call ptr @_ZNK9__gnu_cxx17__normal_iteratorIPN4llvm11SmallVectorIhLj10EEESt6vectorIS3_SaIS3_EEEplEl(ptr noundef nonnull align 8 dereferenceable(8) %14, i64 noundef %31) #16
  %33 = getelementptr inbounds nuw %"class.__gnu_cxx::__normal_iterator", ptr %5, i32 0, i32 0
  store ptr %32, ptr %33, align 8
  %34 = getelementptr inbounds nuw %"class.__gnu_cxx::__normal_iterator", ptr %5, i32 0, i32 0
  %35 = load ptr, ptr %34, align 8
  ret ptr %35
}

; Function Attrs: mustprogress nounwind uwtable
define linkonce_odr hidden noundef ptr @_ZN4llvm7adl_endIRNS_8ArrayRefINS_11SmallVectorIhLj10EEEEEEEDTclsr10adl_detailE8end_implclsr3stdE7forwardIT_Efp_EEEOS6_(ptr noundef nonnull align 8 dereferenceable(16) %0) #0 comdat {
  %2 = alloca ptr, align 8
  store ptr %0, ptr %2, align 8
  %3 = load ptr, ptr %2, align 8
  %4 = call noundef ptr @_ZN4llvm10adl_detail8end_implIRNS_8ArrayRefINS_11SmallVectorIhLj10EEEEEEEDTcl3endclsr3stdE7forwardIT_Efp_EEEOS7_(ptr noundef nonnull align 8 dereferenceable(16) %3)
  ret ptr %4
}

; Function Attrs: mustprogress nounwind uwtable
define linkonce_odr hidden noundef ptr @_ZN4llvm9adl_beginIRNS_8ArrayRefINS_11SmallVectorIhLj10EEEEEEEDTclsr10adl_detailE10begin_implclsr3stdE7forwardIT_Efp_EEEOS6_(ptr noundef nonnull align 8 dereferenceable(16) %0) #0 comdat {
  %2 = alloca ptr, align 8
  store ptr %0, ptr %2, align 8
  %3 = load ptr, ptr %2, align 8
  %4 = call noundef ptr @_ZN4llvm10adl_detail10begin_implIRNS_8ArrayRefINS_11SmallVectorIhLj10EEEEEEEDTcl5beginclsr3stdE7forwardIT_Efp_EEEOS7_(ptr noundef nonnull align 8 dereferenceable(16) %3)
  ret ptr %4
}

; Function Attrs: mustprogress nounwind uwtable
define linkonce_odr hidden void @_ZN9__gnu_cxx17__normal_iteratorIPKN4llvm11SmallVectorIhLj10EEESt6vectorIS3_SaIS3_EEEC2IPS3_vEERKNS0_IT_S8_EE(ptr noundef nonnull align 8 dereferenceable(8) %0, ptr noundef nonnull align 8 dereferenceable(8) %1) unnamed_addr #0 comdat align 2 {
  %3 = alloca ptr, align 8
  %4 = alloca ptr, align 8
  store ptr %0, ptr %3, align 8
  store ptr %1, ptr %4, align 8
  %5 = load ptr, ptr %3, align 8
  %6 = getelementptr inbounds nuw %"class.__gnu_cxx::__normal_iterator.155", ptr %5, i32 0, i32 0
  %7 = load ptr, ptr %4, align 8
  %8 = call noundef nonnull align 8 dereferenceable(8) ptr @_ZNK9__gnu_cxx17__normal_iteratorIPN4llvm11SmallVectorIhLj10EEESt6vectorIS3_SaIS3_EEE4baseEv(ptr noundef nonnull align 8 dereferenceable(8) %7) #16
  %9 = load ptr, ptr %8, align 8
  store ptr %9, ptr %6, align 8
  ret void
}

; Function Attrs: mustprogress nounwind uwtable
define linkonce_odr hidden ptr @_ZNSt6vectorIN4llvm11SmallVectorIhLj10EEESaIS2_EE3endEv(ptr noundef nonnull align 8 dereferenceable(24) %0) #0 comdat align 2 {
  %2 = alloca %"class.__gnu_cxx::__normal_iterator", align 8
  %3 = alloca ptr, align 8
  store ptr %0, ptr %3, align 8
  %4 = load ptr, ptr %3, align 8
  %5 = getelementptr inbounds nuw %"struct.std::_Vector_base", ptr %4, i32 0, i32 0
  %6 = getelementptr inbounds nuw %"struct.std::_Vector_base<llvm::SmallVector<unsigned char, 10>, std::allocator<llvm::SmallVector<unsigned char, 10>>>::_Vector_impl_data", ptr %5, i32 0, i32 1
  call void @_ZN9__gnu_cxx17__normal_iteratorIPN4llvm11SmallVectorIhLj10EEESt6vectorIS3_SaIS3_EEEC2ERKS4_(ptr noundef nonnull align 8 dereferenceable(8) %2, ptr noundef nonnull align 8 dereferenceable(8) %6) #16
  %7 = getelementptr inbounds nuw %"class.__gnu_cxx::__normal_iterator", ptr %2, i32 0, i32 0
  %8 = load ptr, ptr %7, align 8
  ret ptr %8
}

; Function Attrs: mustprogress nounwind uwtable
define linkonce_odr void @_ZN4llvm12append_rangeISt6vectorINS_11SmallVectorIhLj10EEESaIS3_EERNS_8ArrayRefIS3_EEEEvRT_OT0_(ptr noundef nonnull align 8 dereferenceable(24) %0, ptr noundef nonnull align 8 dereferenceable(16) %1) #0 comdat {
  %3 = alloca ptr, align 8
  %4 = alloca ptr, align 8
  %5 = alloca %"class.__gnu_cxx::__normal_iterator.155", align 8
  %6 = alloca %"class.__gnu_cxx::__normal_iterator", align 8
  %7 = alloca %"class.__gnu_cxx::__normal_iterator", align 8
  store ptr %0, ptr %3, align 8
  store ptr %1, ptr %4, align 8
  %8 = load ptr, ptr %3, align 8
  %9 = load ptr, ptr %3, align 8
  %10 = call ptr @_ZNSt6vectorIN4llvm11SmallVectorIhLj10EEESaIS2_EE3endEv(ptr noundef nonnull align 8 dereferenceable(24) %9) #16
  %11 = getelementptr inbounds nuw %"class.__gnu_cxx::__normal_iterator", ptr %6, i32 0, i32 0
  store ptr %10, ptr %11, align 8
  call void @_ZN9__gnu_cxx17__normal_iteratorIPKN4llvm11SmallVectorIhLj10EEESt6vectorIS3_SaIS3_EEEC2IPS3_vEERKNS0_IT_S8_EE(ptr noundef nonnull align 8 dereferenceable(8) %5, ptr noundef nonnull align 8 dereferenceable(8) %6) #16
  %12 = load ptr, ptr %4, align 8
  %13 = call noundef ptr @_ZN4llvm9adl_beginIRNS_8ArrayRefINS_11SmallVectorIhLj10EEEEEEEDTclsr10adl_detailE10begin_implclsr3stdE7forwardIT_Efp_EEEOS6_(ptr noundef nonnull align 8 dereferenceable(16) %12)
  %14 = load ptr, ptr %4, align 8
  %15 = call noundef ptr @_ZN4llvm7adl_endIRNS_8ArrayRefINS_11SmallVectorIhLj10EEEEEEEDTclsr10adl_detailE8end_implclsr3stdE7forwardIT_Efp_EEEOS6_(ptr noundef nonnull align 8 dereferenceable(16) %14)
  %16 = getelementptr inbounds nuw %"class.__gnu_cxx::__normal_iterator.155", ptr %5, i32 0, i32 0
  %17 = load ptr, ptr %16, align 8
  %18 = call ptr @_ZNSt6vectorIN4llvm11SmallVectorIhLj10EEESaIS2_EE6insertIPKS2_vEEN9__gnu_cxx17__normal_iteratorIPS2_S4_EENS9_IS7_S4_EET_SD_(ptr noundef nonnull align 8 dereferenceable(24) %8, ptr %17, ptr noundef %13, ptr noundef %15)
  %19 = getelementptr inbounds nuw %"class.__gnu_cxx::__normal_iterator", ptr %7, i32 0, i32 0
  store ptr %18, ptr %19, align 8
  ret void
}

; Function Attrs: mustprogress nounwind uwtable
define dso_local void @_ZN4llvm15InstrProfWriter12addBinaryIdsENS_8ArrayRefINS_11SmallVectorIhLj10EEEEE(ptr noundef nonnull align 8 dereferenceable(5305) %0, ptr %1, i64 %2) #0 align 2 {
  %4 = alloca %"class.llvm::ArrayRef", align 8
  %5 = alloca ptr, align 8
  %6 = getelementptr inbounds nuw { ptr, i64 }, ptr %4, i32 0, i32 0
  store ptr %1, ptr %6, align 8
  %7 = getelementptr inbounds nuw { ptr, i64 }, ptr %4, i32 0, i32 1
  store i64 %2, ptr %7, align 8
  store ptr %0, ptr %5, align 8
  %8 = load ptr, ptr %5, align 8
  %9 = getelementptr inbounds nuw %"class.llvm::InstrProfWriter", ptr %8, i32 0, i32 9
  call void @_ZN4llvm12append_rangeISt6vectorINS_11SmallVectorIhLj10EEESaIS3_EERNS_8ArrayRefIS3_EEEEvRT_OT0_(ptr noundef nonnull align 8 dereferenceable(24) %9, ptr noundef nonnull align 8 dereferenceable(16) %4)
  ret void
}