; Function Attrs: mustprogress nounwind uwtable
define dso_local void @_ZN4llvm15InstrProfWriter12addBinaryIdsENS_8ArrayRefINS_11SmallVectorIhLj10EEEEE(ptr noundef nonnull align 8 dereferenceable(5305) %0, ptr %1, i64 %2) local_unnamed_addr #0 align 2 {
  %4 = getelementptr inbounds nuw i8, ptr %0, i64 5224
  %5 = getelementptr inbounds nuw i8, ptr %0, i64 5232
  %6 = load ptr, ptr %5, align 8
  %7 = getelementptr inbounds %"class.llvm::SmallVector.102", ptr %1, i64 %2
  %8 = load ptr, ptr %4, align 8
  %9 = ptrtoint ptr %6 to i64
  %10 = ptrtoint ptr %8 to i64
  %11 = sub i64 %9, %10
  %12 = getelementptr inbounds i8, ptr %8, i64 %11
  tail call void @_ZNSt6vectorIN4llvm11SmallVectorIhLj10EEESaIS2_EE15_M_range_insertIPKS2_EEvN9__gnu_cxx17__normal_iteratorIPS2_S4_EET_SC_St20forward_iterator_tag(ptr noundef nonnull align 8 dereferenceable(24) %4, ptr %12, ptr noundef %1, ptr noundef %7)
  ret void
}